; Function Attrs: mustprogress uwtable
define dso_local void @_ZN4Fact24abstract_fact_for_returnERKSt6vectorIPKS_SaIS2_EEPK18ExpressionVariablePK8Function(ptr dead_on_unwind noalias writable sret(%"class.std::vector.0") align 8 %0, ptr noundef nonnull align 8 dereferenceable(12) %1, ptr noundef nonnull align 8 dereferenceable(24) %2, ptr noundef %3, ptr nocapture noundef readonly %4) unnamed_addr #8 align 2 personality ptr @__gxx_personality_v0 {
  %6 = alloca %class.Lhs, align 8
  %7 = getelementptr inbounds i8, ptr %4, i64 208
  %8 = load ptr, ptr %7, align 8
  call void @_ZN3LhsC1ERK8Variable(ptr noundef nonnull align 8 dereferenceable(41) %6, ptr noundef nonnull align 8 dereferenceable(200) %8)
  call void @llvm.memset.p0.i64(ptr noundef nonnull align 8 dereferenceable(24) %0, i8 0, i64 24, i1 false)
  %9 = load ptr, ptr %1, align 8
  %10 = getelementptr inbounds i8, ptr %9, i64 128
  %11 = load ptr, ptr %10, align 8
  %12 = invoke noundef i32 %11(ptr noundef nonnull align 8 dereferenceable(12) %1, ptr noundef nonnull align 8 dereferenceable(24) %2, ptr noundef nonnull %6, ptr noundef %3, ptr noundef nonnull align 8 dereferenceable(24) %0)
          to label %17 unwind label %13

13:                                               ; preds = %5
  %14 = landingpad { ptr, i32 }
          cleanup
  %15 = load ptr, ptr %0, align 8
  %.not.i.i.i = icmp eq ptr %15, null
  br i1 %.not.i.i.i, label %_ZNSt6vectorIPK4FactSaIS2_EED2Ev.exit, label %16

16:                                               ; preds = %13
  call void @_ZdlPv(ptr noundef nonnull %15) #17
  br label %_ZNSt6vectorIPK4FactSaIS2_EED2Ev.exit

_ZNSt6vectorIPK4FactSaIS2_EED2Ev.exit:            ; preds = %13, %16
  call void @_ZN3LhsD1Ev(ptr noundef nonnull align 8 dereferenceable(41) %6) #19
  resume { ptr, i32 } %14

17:                                               ; preds = %5
  call void @_ZN3LhsD1Ev(ptr noundef nonnull align 8 dereferenceable(41) %6) #19
  ret void
}